target datalayout = "e-m:e-p270:32:32-p271:32:32-p272:64:64-i64:64-i128:128-f80:128-n8:16:32:64-S128"
target triple = "x86_64-pc-linux-gnu"

%struct.FSE_CState_t = type { i64, ptr, ptr, i32 }
%struct.FSE_symbolCompressionTransform = type { i32, i32 }

; Function Attrs: inlinehint nounwind uwtable
define internal zeroext i16 @MEM_read16(ptr noundef %0) #2 {
  %2 = alloca ptr, align 8
  store ptr %0, ptr %2, align 8, !tbaa !18
  %3 = load ptr, ptr %2, align 8, !tbaa !18
  %4 = load i16, ptr %3, align 1, !tbaa !25
  ret i16 %4
}

; Function Attrs: inlinehint nounwind uwtable
define internal i32 @FSE_bitCost(ptr noundef %0, i32 noundef %1, i32 noundef %2, i32 noundef %3) #2 {
  %5 = alloca ptr, align 8
  %6 = alloca i32, align 4
  %7 = alloca i32, align 4
  %8 = alloca i32, align 4
  %9 = alloca ptr, align 8
  %10 = alloca i32, align 4
  %11 = alloca i32, align 4
  %12 = alloca i32, align 4
  %13 = alloca i32, align 4
  %14 = alloca i32, align 4
  %15 = alloca i32, align 4
  store ptr %0, ptr %5, align 8, !tbaa !18
  store i32 %1, ptr %6, align 4, !tbaa !9
  store i32 %2, ptr %7, align 4, !tbaa !9
  store i32 %3, ptr %8, align 4, !tbaa !9
  call void @llvm.lifetime.start.p0(i64 8, ptr %9) #7
  %16 = load ptr, ptr %5, align 8, !tbaa !18
  store ptr %16, ptr %9, align 8, !tbaa !18
  call void @llvm.lifetime.start.p0(i64 4, ptr %10) #7
  %17 = load ptr, ptr %9, align 8, !tbaa !18
  %18 = load i32, ptr %7, align 4, !tbaa !9
  %19 = zext i32 %18 to i64
  %20 = getelementptr inbounds nuw %struct.FSE_symbolCompressionTransform, ptr %17, i64 %19
  %21 = getelementptr inbounds nuw %struct.FSE_symbolCompressionTransform, ptr %20, i32 0, i32 1
  %22 = load i32, ptr %21, align 4, !tbaa !23
  %23 = lshr i32 %22, 16
  store i32 %23, ptr %10, align 4, !tbaa !9
  call void @llvm.lifetime.start.p0(i64 4, ptr %11) #7
  %24 = load i32, ptr %10, align 4, !tbaa !9
  %25 = add i32 %24, 1
  %26 = shl i32 %25, 16
  store i32 %26, ptr %11, align 4, !tbaa !9
  call void @llvm.lifetime.start.p0(i64 4, ptr %12) #7
  %27 = load i32, ptr %6, align 4, !tbaa !9
  %28 = shl i32 1, %27
  store i32 %28, ptr %12, align 4, !tbaa !9
  call void @llvm.lifetime.start.p0(i64 4, ptr %13) #7
  %29 = load i32, ptr %11, align 4, !tbaa !9
  %30 = load ptr, ptr %9, align 8, !tbaa !18
  %31 = load i32, ptr %7, align 4, !tbaa !9
  %32 = zext i32 %31 to i64
  %33 = getelementptr inbounds nuw %struct.FSE_symbolCompressionTransform, ptr %30, i64 %32
  %34 = getelementptr inbounds nuw %struct.FSE_symbolCompressionTransform, ptr %33, i32 0, i32 1
  %35 = load i32, ptr %34, align 4, !tbaa !23
  %36 = load i32, ptr %12, align 4, !tbaa !9
  %37 = add i32 %35, %36
  %38 = sub i32 %29, %37
  store i32 %38, ptr %13, align 4, !tbaa !9
  call void @llvm.lifetime.start.p0(i64 4, ptr %14) #7
  %39 = load i32, ptr %13, align 4, !tbaa !9
  %40 = load i32, ptr %8, align 4, !tbaa !9
  %41 = shl i32 %39, %40
  %42 = load i32, ptr %6, align 4, !tbaa !9
  %43 = lshr i32 %41, %42
  store i32 %43, ptr %14, align 4, !tbaa !9
  call void @llvm.lifetime.start.p0(i64 4, ptr %15) #7
  %44 = load i32, ptr %8, align 4, !tbaa !9
  %45 = shl i32 1, %44
  store i32 %45, ptr %15, align 4, !tbaa !9
  %46 = load i32, ptr %10, align 4, !tbaa !9
  %47 = add i32 %46, 1
  %48 = load i32, ptr %15, align 4, !tbaa !9
  %49 = mul i32 %47, %48
  %50 = load i32, ptr %14, align 4, !tbaa !9
  %51 = sub i32 %49, %50
  call void @llvm.lifetime.end.p0(i64 4, ptr %15) #7
  call void @llvm.lifetime.end.p0(i64 4, ptr %14) #7
  call void @llvm.lifetime.end.p0(i64 4, ptr %13) #7
  call void @llvm.lifetime.end.p0(i64 4, ptr %12) #7
  call void @llvm.lifetime.end.p0(i64 4, ptr %11) #7
  call void @llvm.lifetime.end.p0(i64 4, ptr %10) #7
  call void @llvm.lifetime.end.p0(i64 8, ptr %9) #7
  ret i32 %51
}

; Function Attrs: nounwind uwtable
define internal i32 @ZSTD_getFSEMaxSymbolValue(ptr noundef %0) #0 {
  %2 = alloca ptr, align 8
  %3 = alloca ptr, align 8
  %4 = alloca ptr, align 8
  %5 = alloca i32, align 4
  store ptr %0, ptr %2, align 8, !tbaa !4
  call void @llvm.lifetime.start.p0(i64 8, ptr %3) #7
  %6 = load ptr, ptr %2, align 8, !tbaa !4
  store ptr %6, ptr %3, align 8, !tbaa !18
  call void @llvm.lifetime.start.p0(i64 8, ptr %4) #7
  %7 = load ptr, ptr %3, align 8, !tbaa !18
  store ptr %7, ptr %4, align 8, !tbaa !19
  call void @llvm.lifetime.start.p0(i64 4, ptr %5) #7
  %8 = load ptr, ptr %4, align 8, !tbaa !19
  %9 = getelementptr inbounds i16, ptr %8, i64 1
  %10 = call zeroext i16 @MEM_read16(ptr noundef %9)
  %11 = zext i16 %10 to i32
  store i32 %11, ptr %5, align 4, !tbaa !9
  %12 = load i32, ptr %5, align 4, !tbaa !9
  call void @llvm.lifetime.end.p0(i64 4, ptr %5) #7
  call void @llvm.lifetime.end.p0(i64 8, ptr %4) #7
  call void @llvm.lifetime.end.p0(i64 8, ptr %3) #7
  ret i32 %12
}

; Function Attrs: inlinehint nounwind uwtable
define internal void @FSE_initCState(ptr noundef %0, ptr noundef %1) #2 {
  %3 = alloca ptr, align 8
  %4 = alloca ptr, align 8
  %5 = alloca ptr, align 8
  %6 = alloca ptr, align 8
  %7 = alloca i32, align 4
  store ptr %0, ptr %3, align 8, !tbaa !18
  store ptr %1, ptr %4, align 8, !tbaa !4
  call void @llvm.lifetime.start.p0(i64 8, ptr %5) #7
  %8 = load ptr, ptr %4, align 8, !tbaa !4
  store ptr %8, ptr %5, align 8, !tbaa !18
  call void @llvm.lifetime.start.p0(i64 8, ptr %6) #7
  %9 = load ptr, ptr %5, align 8, !tbaa !18
  store ptr %9, ptr %6, align 8, !tbaa !19
  call void @llvm.lifetime.start.p0(i64 4, ptr %7) #7
  %10 = load ptr, ptr %5, align 8, !tbaa !18
  %11 = call zeroext i16 @MEM_read16(ptr noundef %10)
  %12 = zext i16 %11 to i32
  store i32 %12, ptr %7, align 4, !tbaa !9
  %13 = load i32, ptr %7, align 4, !tbaa !9
  %14 = zext i32 %13 to i64
  %15 = shl i64 1, %14
  %16 = load ptr, ptr %3, align 8, !tbaa !18
  %17 = getelementptr inbounds nuw %struct.FSE_CState_t, ptr %16, i32 0, i32 0
  store i64 %15, ptr %17, align 8, !tbaa !21
  %18 = load ptr, ptr %6, align 8, !tbaa !19
  %19 = getelementptr inbounds i16, ptr %18, i64 2
  %20 = load ptr, ptr %3, align 8, !tbaa !18
  %21 = getelementptr inbounds nuw %struct.FSE_CState_t, ptr %20, i32 0, i32 1
  store ptr %19, ptr %21, align 8, !tbaa !22
  %22 = load ptr, ptr %4, align 8, !tbaa !4
  %23 = getelementptr inbounds i32, ptr %22, i64 1
  %24 = load i32, ptr %7, align 4, !tbaa !9
  %25 = icmp ne i32 %24, 0
  br i1 %25, label %26, label %30

26:                                               ; preds = %2
  %27 = load i32, ptr %7, align 4, !tbaa !9
  %28 = sub i32 %27, 1
  %29 = shl i32 1, %28
  br label %31

30:                                               ; preds = %2
  br label %31

31:                                               ; preds = %30, %26
  %32 = phi i32 [ %29, %26 ], [ 1, %30 ]
  %33 = sext i32 %32 to i64
  %34 = getelementptr inbounds i32, ptr %23, i64 %33
  %35 = load ptr, ptr %3, align 8, !tbaa !18
  %36 = getelementptr inbounds nuw %struct.FSE_CState_t, ptr %35, i32 0, i32 2
  store ptr %34, ptr %36, align 8, !tbaa !15
  %37 = load i32, ptr %7, align 4, !tbaa !9
  %38 = load ptr, ptr %3, align 8, !tbaa !18
  %39 = getelementptr inbounds nuw %struct.FSE_CState_t, ptr %38, i32 0, i32 3
  store i32 %37, ptr %39, align 8, !tbaa !13
  call void @llvm.lifetime.end.p0(i64 4, ptr %7) #7
  call void @llvm.lifetime.end.p0(i64 8, ptr %6) #7
  call void @llvm.lifetime.end.p0(i64 8, ptr %5) #7
  ret void
}

; Function Attrs: nounwind uwtable
define dso_local i64 @ZSTD_fseBitCost(ptr noundef %0, ptr noundef %1, i32 noundef %2) #0 {
  %4 = alloca i64, align 8
  %5 = alloca ptr, align 8
  %6 = alloca ptr, align 8
  %7 = alloca i32, align 4
  %8 = alloca i32, align 4
  %9 = alloca i64, align 8
  %10 = alloca i32, align 4
  %11 = alloca %struct.FSE_CState_t, align 8
  %12 = alloca i32, align 4
  %13 = alloca i32, align 4
  %14 = alloca i32, align 4
  %15 = alloca i32, align 4
  store ptr %0, ptr %5, align 8, !tbaa !4
  store ptr %1, ptr %6, align 8, !tbaa !4
  store i32 %2, ptr %7, align 4, !tbaa !9
  call void @llvm.lifetime.start.p0(i64 4, ptr %8) #7
  store i32 8, ptr %8, align 4, !tbaa !9
  call void @llvm.lifetime.start.p0(i64 8, ptr %9) #7
  store i64 0, ptr %9, align 8, !tbaa !11
  call void @llvm.lifetime.start.p0(i64 4, ptr %10) #7
  call void @llvm.lifetime.start.p0(i64 32, ptr %11) #7
  %16 = load ptr, ptr %5, align 8, !tbaa !4
  call void @FSE_initCState(ptr noundef %11, ptr noundef %16)
  %17 = load ptr, ptr %5, align 8, !tbaa !4
  %18 = call i32 @ZSTD_getFSEMaxSymbolValue(ptr noundef %17)
  %19 = load i32, ptr %7, align 4, !tbaa !9
  %20 = icmp ult i32 %18, %19
  br i1 %20, label %21, label %22

21:                                               ; preds = %3
  store i64 -1, ptr %4, align 8
  store i32 1, ptr %12, align 4
  br label %71

22:                                               ; preds = %3
  store i32 0, ptr %10, align 4, !tbaa !9
  br label %23

23:                                               ; preds = %65, %22
  %24 = load i32, ptr %10, align 4, !tbaa !9
  %25 = load i32, ptr %7, align 4, !tbaa !9
  %26 = icmp ule i32 %24, %25
  br i1 %26, label %27, label %68

27:                                               ; preds = %23
  call void @llvm.lifetime.start.p0(i64 4, ptr %13) #7
  %28 = getelementptr inbounds nuw %struct.FSE_CState_t, ptr %11, i32 0, i32 3
  %29 = load i32, ptr %28, align 8, !tbaa !13
  store i32 %29, ptr %13, align 4, !tbaa !9
  call void @llvm.lifetime.start.p0(i64 4, ptr %14) #7
  %30 = load i32, ptr %13, align 4, !tbaa !9
  %31 = add i32 %30, 1
  %32 = shl i32 %31, 8
  store i32 %32, ptr %14, align 4, !tbaa !9
  call void @llvm.lifetime.start.p0(i64 4, ptr %15) #7
  %33 = getelementptr inbounds nuw %struct.FSE_CState_t, ptr %11, i32 0, i32 2
  %34 = load ptr, ptr %33, align 8, !tbaa !15
  %35 = load i32, ptr %13, align 4, !tbaa !9
  %36 = load i32, ptr %10, align 4, !tbaa !9
  %37 = call i32 @FSE_bitCost(ptr noundef %34, i32 noundef %35, i32 noundef %36, i32 noundef 8)
  store i32 %37, ptr %15, align 4, !tbaa !9
  %38 = load ptr, ptr %6, align 8, !tbaa !4
  %39 = load i32, ptr %10, align 4, !tbaa !9
  %40 = zext i32 %39 to i64
  %41 = getelementptr inbounds nuw i32, ptr %38, i64 %40
  %42 = load i32, ptr %41, align 4, !tbaa !9
  %43 = icmp eq i32 %42, 0
  br i1 %43, label %44, label %45

44:                                               ; preds = %27
  store i32 4, ptr %12, align 4
  br label %62

45:                                               ; preds = %27
  %46 = load i32, ptr %15, align 4, !tbaa !9
  %47 = load i32, ptr %14, align 4, !tbaa !9
  %48 = icmp uge i32 %46, %47
  br i1 %48, label %49, label %50

49:                                               ; preds = %45
  store i64 -1, ptr %4, align 8
  store i32 1, ptr %12, align 4
  br label %62

50:                                               ; preds = %45
  %51 = load ptr, ptr %6, align 8, !tbaa !4
  %52 = load i32, ptr %10, align 4, !tbaa !9
  %53 = zext i32 %52 to i64
  %54 = getelementptr inbounds nuw i32, ptr %51, i64 %53
  %55 = load i32, ptr %54, align 4, !tbaa !9
  %56 = zext i32 %55 to i64
  %57 = load i32, ptr %15, align 4, !tbaa !9
  %58 = zext i32 %57 to i64
  %59 = mul i64 %56, %58
  %60 = load i64, ptr %9, align 8, !tbaa !11
  %61 = add i64 %60, %59
  store i64 %61, ptr %9, align 8, !tbaa !11
  store i32 0, ptr %12, align 4
  br label %62

62:                                               ; preds = %50, %49, %44
  call void @llvm.lifetime.end.p0(i64 4, ptr %15) #7
  call void @llvm.lifetime.end.p0(i64 4, ptr %14) #7
  call void @llvm.lifetime.end.p0(i64 4, ptr %13) #7
  %63 = load i32, ptr %12, align 4
  switch i32 %63, label %71 [
    i32 0, label %64
    i32 4, label %65
  ]

64:                                               ; preds = %62
  br label %65

65:                                               ; preds = %64, %62
  %66 = load i32, ptr %10, align 4, !tbaa !9
  %67 = add i32 %66, 1
  store i32 %67, ptr %10, align 4, !tbaa !9
  br label %23, !llvm.loop !16

68:                                               ; preds = %23
  %69 = load i64, ptr %9, align 8, !tbaa !11
  %70 = lshr i64 %69, 8
  store i64 %70, ptr %4, align 8
  store i32 1, ptr %12, align 4
  br label %71

71:                                               ; preds = %68, %62, %21
  call void @llvm.lifetime.end.p0(i64 32, ptr %11) #7
  call void @llvm.lifetime.end.p0(i64 4, ptr %10) #7
  call void @llvm.lifetime.end.p0(i64 8, ptr %9) #7
  call void @llvm.lifetime.end.p0(i64 4, ptr %8) #7
  %72 = load i64, ptr %4, align 8
  ret i64 %72
}